target datalayout = "e-m:e-p270:32:32-p271:32:32-p272:64:64-i64:64-i128:128-f80:128-n8:16:32:64-S128"
target triple = "x86_64-pc-linux-gnu"

%class.Block_Array = type { i32, ptr, ptr }
%class.Block = type { %class.CFGElement, %class.Node_List, %class.Block_Array, i32, i32, i32, ptr, ptr, i32, i32, i32, i32, i32, i32, i32, i32, i8, i32 }
%class.CFGElement = type { ptr, double }
%class.Node_List = type <{ %class.Node_Array, i32, [4 x i8] }>
%class.Node_Array = type { ptr, i32, ptr }
%class.Trace = type { i32, ptr, ptr, ptr, ptr }

; Function Attrs: mustprogress nounwind uwtable
define linkonce_odr hidden noundef zeroext i1 @_ZNK5Block12is_connectorEv(ptr noundef nonnull align 8 dereferenceable(144) %0) #1 comdat align 2 {
  %2 = alloca ptr, align 8
  store ptr %0, ptr %2, align 8
  %3 = load ptr, ptr %2, align 8
  %4 = getelementptr inbounds %class.Block, ptr %3, i32 0, i32 16
  %5 = load i8, ptr %4, align 8
  %6 = trunc i8 %5 to i1
  ret i1 %6
}

; Function Attrs: mustprogress nounwind uwtable
define linkonce_odr hidden noundef ptr @_ZNK5Trace11first_blockEv(ptr noundef nonnull align 8 dereferenceable(40) %0) #1 comdat align 2 {
  %2 = alloca ptr, align 8
  store ptr %0, ptr %2, align 8
  %3 = load ptr, ptr %2, align 8
  %4 = getelementptr inbounds %class.Trace, ptr %3, i32 0, i32 3
  %5 = load ptr, ptr %4, align 8
  ret ptr %5
}

; Function Attrs: mustprogress nounwind uwtable
define hidden i32 @trace_frequency_order(ptr noundef %0, ptr noundef %1) #1 {
  %3 = alloca i32, align 4
  %4 = alloca ptr, align 8
  %5 = alloca ptr, align 8
  %6 = alloca ptr, align 8
  %7 = alloca ptr, align 8
  %8 = alloca ptr, align 8
  %9 = alloca ptr, align 8
  %10 = alloca float, align 4
  %11 = alloca float, align 4
  %12 = alloca i32, align 4
  store ptr %0, ptr %4, align 8
  store ptr %1, ptr %5, align 8
  %13 = load ptr, ptr %4, align 8
  %14 = load ptr, ptr %13, align 8
  store ptr %14, ptr %6, align 8
  %15 = load ptr, ptr %5, align 8
  %16 = load ptr, ptr %15, align 8
  store ptr %16, ptr %7, align 8
  %17 = load ptr, ptr %6, align 8
  %18 = call noundef ptr @_ZNK5Trace11first_blockEv(ptr noundef nonnull align 8 dereferenceable(40) %17)
  store ptr %18, ptr %8, align 8
  %19 = load ptr, ptr %7, align 8
  %20 = call noundef ptr @_ZNK5Trace11first_blockEv(ptr noundef nonnull align 8 dereferenceable(40) %19)
  store ptr %20, ptr %9, align 8
  %21 = load ptr, ptr %8, align 8
  %22 = call noundef zeroext i1 @_ZNK5Block12is_connectorEv(ptr noundef nonnull align 8 dereferenceable(144) %21)
  %23 = zext i1 %22 to i32
  %24 = load ptr, ptr %9, align 8
  %25 = call noundef zeroext i1 @_ZNK5Block12is_connectorEv(ptr noundef nonnull align 8 dereferenceable(144) %24)
  %26 = zext i1 %25 to i32
  %27 = icmp ne i32 %23, %26
  br i1 %27, label %28, label %32

28:                                               ; preds = %2
  %29 = load ptr, ptr %9, align 8
  %30 = call noundef zeroext i1 @_ZNK5Block12is_connectorEv(ptr noundef nonnull align 8 dereferenceable(144) %29)
  %31 = select i1 %30, i32 -1, i32 1
  store i32 %31, ptr %3, align 4
  br label %60

32:                                               ; preds = %2
  %33 = load ptr, ptr %8, align 8
  %34 = getelementptr inbounds %class.CFGElement, ptr %33, i32 0, i32 1
  %35 = load double, ptr %34, align 8
  %36 = fptrunc double %35 to float
  store float %36, ptr %10, align 4
  %37 = load ptr, ptr %9, align 8
  %38 = getelementptr inbounds %class.CFGElement, ptr %37, i32 0, i32 1
  %39 = load double, ptr %38, align 8
  %40 = fptrunc double %39 to float
  store float %40, ptr %11, align 4
  %41 = load float, ptr %10, align 4
  %42 = load float, ptr %11, align 4
  %43 = fcmp une float %41, %42
  br i1 %43, label %44, label %49

44:                                               ; preds = %32
  %45 = load float, ptr %10, align 4
  %46 = load float, ptr %11, align 4
  %47 = fcmp ogt float %45, %46
  %48 = select i1 %47, i32 -1, i32 1
  store i32 %48, ptr %3, align 4
  br label %60

49:                                               ; preds = %32
  %50 = load ptr, ptr %6, align 8
  %51 = call noundef ptr @_ZNK5Trace11first_blockEv(ptr noundef nonnull align 8 dereferenceable(40) %50)
  %52 = getelementptr inbounds %class.Block, ptr %51, i32 0, i32 8
  %53 = load i32, ptr %52, align 8
  %54 = load ptr, ptr %7, align 8
  %55 = call noundef ptr @_ZNK5Trace11first_blockEv(ptr noundef nonnull align 8 dereferenceable(40) %54)
  %56 = getelementptr inbounds %class.Block, ptr %55, i32 0, i32 8
  %57 = load i32, ptr %56, align 8
  %58 = sub i32 %53, %57
  store i32 %58, ptr %12, align 4
  %59 = load i32, ptr %12, align 4
  store i32 %59, ptr %3, align 4
  br label %60

60:                                               ; preds = %49, %44, %28
  %61 = load i32, ptr %3, align 4
  ret i32 %61
}