; Function Attrs: mustprogress nofree norecurse nosync nounwind willreturn memory(read, inaccessiblemem: none) uwtable
define hidden i32 @trace_frequency_order(ptr nocapture noundef readonly %0, ptr nocapture noundef readonly %1) #3 {
  %3 = load ptr, ptr %0, align 8
  %4 = load ptr, ptr %1, align 8
  %5 = getelementptr inbounds i8, ptr %3, i64 24
  %6 = load ptr, ptr %5, align 8
  %7 = getelementptr inbounds i8, ptr %4, i64 24
  %8 = load ptr, ptr %7, align 8
  %9 = getelementptr inbounds i8, ptr %6, i64 136
  %10 = load i8, ptr %9, align 8
  %11 = getelementptr inbounds i8, ptr %8, i64 136
  %12 = load i8, ptr %11, align 8
  %13 = xor i8 %12, %10
  %14 = trunc i8 %13 to i1
  br i1 %14, label %15, label %18

15:                                               ; preds = %2
  %16 = trunc i8 %12 to i1
  %17 = select i1 %16, i32 -1, i32 1
  br label %35

18:                                               ; preds = %2
  %19 = getelementptr inbounds i8, ptr %6, i64 8
  %20 = load double, ptr %19, align 8
  %21 = fptrunc double %20 to float
  %22 = getelementptr inbounds i8, ptr %8, i64 8
  %23 = load double, ptr %22, align 8
  %24 = fptrunc double %23 to float
  %25 = fcmp une float %21, %24
  br i1 %25, label %26, label %29

26:                                               ; preds = %18
  %27 = fcmp ogt float %21, %24
  %28 = select i1 %27, i32 -1, i32 1
  br label %35

29:                                               ; preds = %18
  %30 = getelementptr inbounds i8, ptr %6, i64 104
  %31 = load i32, ptr %30, align 8
  %32 = getelementptr inbounds i8, ptr %8, i64 104
  %33 = load i32, ptr %32, align 8
  %34 = sub i32 %31, %33
  br label %35

35:                                               ; preds = %29, %26, %15
  %.0 = phi i32 [ %17, %15 ], [ %28, %26 ], [ %34, %29 ]
  ret i32 %.0
}